target datalayout = "e-m:e-p270:32:32-p271:32:32-p272:64:64-i64:64-i128:128-f80:128-n8:16:32:64-S128"
target triple = "x86_64-pc-linux-gnu"

%"struct.faiss::VectorTransform" = type <{ ptr, i32, i32, i8, [7 x i8] }>
%"struct.faiss::VectorTransform.base" = type <{ ptr, i32, i32, i8 }>
%"struct.faiss::RemapDimensionsTransform" = type { %"struct.faiss::VectorTransform.base", %"class.std::vector.9" }
%"class.std::vector.9" = type { %"struct.std::_Vector_base.10" }
%"struct.std::_Vector_base.10" = type { %"struct.std::_Vector_base<int, std::allocator<int>>::_Vector_impl" }
%"struct.std::_Vector_base<int, std::allocator<int>>::_Vector_impl" = type { %"struct.std::_Vector_base<int, std::allocator<int>>::_Vector_impl_data" }
%"struct.std::_Vector_base<int, std::allocator<int>>::_Vector_impl_data" = type { ptr, ptr, ptr }

; Function Attrs: mustprogress nounwind uwtable
define linkonce_odr noundef nonnull align 4 dereferenceable(4) ptr @_ZNKSt6vectorIiSaIiEEixEm(ptr noundef nonnull align 8 dereferenceable(24) %0, i64 noundef %1) #0 comdat align 2 {
  %3 = alloca ptr, align 8
  %4 = alloca i64, align 8
  store ptr %0, ptr %3, align 8, !tbaa !262
  store i64 %1, ptr %4, align 8, !tbaa !9
  %5 = load ptr, ptr %3, align 8
  %6 = getelementptr inbounds nuw %"struct.std::_Vector_base.10", ptr %5, i32 0, i32 0
  %7 = getelementptr inbounds nuw %"struct.std::_Vector_base<int, std::allocator<int>>::_Vector_impl_data", ptr %6, i32 0, i32 0
  %8 = load ptr, ptr %7, align 8, !tbaa !266
  %9 = load i64, ptr %4, align 8, !tbaa !9
  %10 = getelementptr inbounds nuw i32, ptr %8, i64 %9
  ret ptr %10
}

; Function Attrs: mustprogress nounwind uwtable
define void @_ZNK5faiss24RemapDimensionsTransform13apply_noallocElPKfPf(ptr noundef nonnull align 8 dereferenceable(48) %0, i64 noundef %1, ptr noundef %2, ptr noundef %3) unnamed_addr #0 align 2 {
  %5 = alloca ptr, align 8
  %6 = alloca i64, align 8
  %7 = alloca ptr, align 8
  %8 = alloca ptr, align 8
  %9 = alloca i64, align 8
  %10 = alloca i32, align 4
  %11 = alloca i32, align 4
  store ptr %0, ptr %5, align 8, !tbaa !38
  store i64 %1, ptr %6, align 8, !tbaa !9
  store ptr %2, ptr %7, align 8, !tbaa !11
  store ptr %3, ptr %8, align 8, !tbaa !11
  %12 = load ptr, ptr %5, align 8
  call void @llvm.lifetime.start.p0(i64 8, ptr %9) #19
  store i64 0, ptr %9, align 8, !tbaa !9
  br label %13

13:                                               ; preds = %63, %4
  %14 = load i64, ptr %9, align 8, !tbaa !9
  %15 = load i64, ptr %6, align 8, !tbaa !9
  %16 = icmp slt i64 %14, %15
  br i1 %16, label %18, label %17

17:                                               ; preds = %13
  store i32 2, ptr %10, align 4
  call void @llvm.lifetime.end.p0(i64 8, ptr %9) #19
  br label %66

18:                                               ; preds = %13
  call void @llvm.lifetime.start.p0(i64 4, ptr %11) #19
  store i32 0, ptr %11, align 4, !tbaa !21
  br label %19

19:                                               ; preds = %49, %18
  %20 = load i32, ptr %11, align 4, !tbaa !21
  %21 = getelementptr inbounds nuw %"struct.faiss::VectorTransform", ptr %12, i32 0, i32 2
  %22 = load i32, ptr %21, align 4, !tbaa !28
  %23 = icmp slt i32 %20, %22
  br i1 %23, label %25, label %24

24:                                               ; preds = %19
  store i32 5, ptr %10, align 4
  call void @llvm.lifetime.end.p0(i64 4, ptr %11) #19
  br label %52

25:                                               ; preds = %19
  %26 = getelementptr inbounds nuw %"struct.faiss::RemapDimensionsTransform", ptr %12, i32 0, i32 1
  %27 = load i32, ptr %11, align 4, !tbaa !21
  %28 = sext i32 %27 to i64
  %29 = call noundef nonnull align 4 dereferenceable(4) ptr @_ZNKSt6vectorIiSaIiEEixEm(ptr noundef nonnull align 8 dereferenceable(24) %26, i64 noundef %28) #19
  %30 = load i32, ptr %29, align 4, !tbaa !21
  %31 = icmp slt i32 %30, 0
  br i1 %31, label %32, label %33

32:                                               ; preds = %25
  br label %43

33:                                               ; preds = %25
  %34 = load ptr, ptr %7, align 8, !tbaa !11
  %35 = getelementptr inbounds nuw %"struct.faiss::RemapDimensionsTransform", ptr %12, i32 0, i32 1
  %36 = load i32, ptr %11, align 4, !tbaa !21
  %37 = sext i32 %36 to i64
  %38 = call noundef nonnull align 4 dereferenceable(4) ptr @_ZNKSt6vectorIiSaIiEEixEm(ptr noundef nonnull align 8 dereferenceable(24) %35, i64 noundef %37) #19
  %39 = load i32, ptr %38, align 4, !tbaa !21
  %40 = sext i32 %39 to i64
  %41 = getelementptr inbounds float, ptr %34, i64 %40
  %42 = load float, ptr %41, align 4, !tbaa !29
  br label %43

43:                                               ; preds = %33, %32
  %44 = phi float [ 0.000000e+00, %32 ], [ %42, %33 ]
  %45 = load ptr, ptr %8, align 8, !tbaa !11
  %46 = load i32, ptr %11, align 4, !tbaa !21
  %47 = sext i32 %46 to i64
  %48 = getelementptr inbounds float, ptr %45, i64 %47
  store float %44, ptr %48, align 4, !tbaa !29
  br label %49

49:                                               ; preds = %43
  %50 = load i32, ptr %11, align 4, !tbaa !21
  %51 = add nsw i32 %50, 1
  store i32 %51, ptr %11, align 4, !tbaa !21
  br label %19, !llvm.loop !40

52:                                               ; preds = %24
  %53 = getelementptr inbounds nuw %"struct.faiss::VectorTransform", ptr %12, i32 0, i32 1
  %54 = load i32, ptr %53, align 8, !tbaa !34
  %55 = load ptr, ptr %7, align 8, !tbaa !11
  %56 = sext i32 %54 to i64
  %57 = getelementptr inbounds float, ptr %55, i64 %56
  store ptr %57, ptr %7, align 8, !tbaa !11
  %58 = getelementptr inbounds nuw %"struct.faiss::VectorTransform", ptr %12, i32 0, i32 2
  %59 = load i32, ptr %58, align 4, !tbaa !28
  %60 = load ptr, ptr %8, align 8, !tbaa !11
  %61 = sext i32 %59 to i64
  %62 = getelementptr inbounds float, ptr %60, i64 %61
  store ptr %62, ptr %8, align 8, !tbaa !11
  br label %63

63:                                               ; preds = %52
  %64 = load i64, ptr %9, align 8, !tbaa !9
  %65 = add nsw i64 %64, 1
  store i64 %65, ptr %9, align 8, !tbaa !9
  br label %13, !llvm.loop !41

66:                                               ; preds = %17
  ret void
}