; Function Attrs: mustprogress nofree norecurse nosync nounwind memory(read, argmem: readwrite, inaccessiblemem: none) uwtable
define void @_ZNK5faiss24RemapDimensionsTransform13apply_noallocElPKfPf(ptr noundef nonnull readonly align 8 captures(none) dereferenceable(48) %0, i64 noundef %1, ptr noundef readonly captures(none) %2, ptr noundef writeonly captures(none) %3) unnamed_addr #5 align 2 {
  %5 = icmp sgt i64 %1, 0
  br i1 %5, label %.preheader.lr.ph, label %._crit_edge20

.preheader.lr.ph:                                 ; preds = %4
  %6 = getelementptr inbounds nuw i8, ptr %0, i64 12
  %7 = load i32, ptr %6, align 4, !tbaa !29
  %8 = icmp sgt i32 %7, 0
  %9 = getelementptr inbounds nuw i8, ptr %0, i64 24
  %10 = load ptr, ptr %9, align 8
  %11 = getelementptr inbounds nuw i8, ptr %0, i64 8
  %12 = load i32, ptr %11, align 8, !tbaa !37
  %13 = sext i32 %12 to i64
  %14 = sext i32 %7 to i64
  br i1 %8, label %.preheader.us.preheader, label %._crit_edge20

.preheader.us.preheader:                          ; preds = %.preheader.lr.ph
  %wide.trip.count = zext nneg i32 %7 to i64
  br label %.preheader.us

.preheader.us:                                    ; preds = %.preheader.us.preheader, %._crit_edge.us
  %.01219.us = phi i64 [ %28, %._crit_edge.us ], [ 0, %.preheader.us.preheader ]
  %.01318.us = phi ptr [ %27, %._crit_edge.us ], [ %3, %.preheader.us.preheader ]
  %.01417.us = phi ptr [ %26, %._crit_edge.us ], [ %2, %.preheader.us.preheader ]
  br label %15

15:                                               ; preds = %.preheader.us, %23
  %indvars.iv = phi i64 [ 0, %.preheader.us ], [ %indvars.iv.next, %23 ]
  %16 = getelementptr inbounds nuw i32, ptr %10, i64 %indvars.iv
  %17 = load i32, ptr %16, align 4, !tbaa !38
  %18 = icmp slt i32 %17, 0
  br i1 %18, label %23, label %19

19:                                               ; preds = %15
  %20 = zext nneg i32 %17 to i64
  %21 = getelementptr inbounds nuw float, ptr %.01417.us, i64 %20
  %22 = load float, ptr %21, align 4, !tbaa !32
  br label %23

23:                                               ; preds = %19, %15
  %24 = phi float [ %22, %19 ], [ 0.000000e+00, %15 ]
  %25 = getelementptr inbounds nuw float, ptr %.01318.us, i64 %indvars.iv
  store float %24, ptr %25, align 4, !tbaa !32
  %indvars.iv.next = add nuw nsw i64 %indvars.iv, 1
  %exitcond.not = icmp eq i64 %indvars.iv.next, %wide.trip.count
  br i1 %exitcond.not, label %._crit_edge.us, label %15, !llvm.loop !44

._crit_edge.us:                                   ; preds = %23
  %26 = getelementptr inbounds float, ptr %.01417.us, i64 %13
  %27 = getelementptr inbounds nuw float, ptr %.01318.us, i64 %14
  %28 = add nuw nsw i64 %.01219.us, 1
  %exitcond23.not = icmp eq i64 %28, %1
  br i1 %exitcond23.not, label %._crit_edge20, label %.preheader.us, !llvm.loop !45

._crit_edge20:                                    ; preds = %._crit_edge.us, %.preheader.lr.ph, %4
  ret void
}